; Function Attrs: mustprogress nounwind uwtable
define dso_local noundef zeroext i1 @_ZNK5clang14NoSanitizeList14containsGlobalENS_13SanitizerMaskEN4llvm9StringRefES3_(ptr noundef nonnull readonly align 8 captures(none) dereferenceable(16) %0, i64 %1, i64 %2, ptr %3, i64 %4, ptr noundef readonly byval(%"class.llvm::StringRef") align 8 captures(none) %5) local_unnamed_addr #0 align 2 {
  %7 = alloca %"class.llvm::StringRef", align 8
  %8 = load ptr, ptr %0, align 8
  store ptr %3, ptr %7, align 8
  %.sroa.22.0..sroa_idx = getelementptr inbounds nuw i8, ptr %7, i64 8
  store i64 %4, ptr %.sroa.22.0..sroa_idx, align 8
  %9 = tail call noundef zeroext i1 @_ZNK5clang24SanitizerSpecialCaseList9inSectionENS_13SanitizerMaskEN4llvm9StringRefES3_S3_(ptr noundef nonnull align 8 dereferenceable(48) %8, i64 %1, i64 %2, ptr nonnull @.str, i64 6, ptr noundef nonnull byval(%"class.llvm::StringRef") align 8 %7, ptr noundef nonnull byval(%"class.llvm::StringRef") align 8 %5) #6
  ret i1 %9
}